target datalayout = "e-m:e-p270:32:32-p271:32:32-p272:64:64-i64:64-i128:128-f80:128-n8:16:32:64-S128"
target triple = "x86_64-pc-linux-gnu"

%struct._priv_exr_context_t = type { i8, i8, i8, i8, i8, i8, i8, i8, %struct.exr_attr_string_t, %struct.exr_attr_string_t, ptr, ptr, ptr, ptr, ptr, ptr, ptr, ptr, i32, i32, i32, i32, i32, float, ptr, ptr, ptr, i64, ptr, ptr, i64, i32, i32, i32, i32, %struct._priv_exr_part_t, ptr, ptr, %struct.exr_attribute_list, %union.pthread_mutex_t, i8, i8, [2 x i8], i32 }
%struct.exr_attr_string_t = type { i32, i32, ptr }
%struct._priv_exr_part_t = type { i32, i32, %struct.exr_attribute_list, ptr, ptr, ptr, ptr, ptr, ptr, ptr, ptr, ptr, ptr, ptr, ptr, ptr, ptr, %struct.exr_attr_box2i_t, %struct.exr_attr_box2i_t, i32, i32, i32, float, i32, i32, ptr, ptr, ptr, ptr, i64, i16, i16, i32, i64, i64 }
%struct.exr_attr_box2i_t = type { %struct.exr_attr_v2i_t, %struct.exr_attr_v2i_t }
%struct.exr_attr_v2i_t = type { i32, i32 }
%struct.exr_attribute_list = type { i32, i32, ptr, ptr }
%union.pthread_mutex_t = type { %struct.__pthread_mutex_s }
%struct.__pthread_mutex_s = type { i32, i32, i32, i32, i32, i16, i16, %struct.__pthread_internal_list }
%struct.__pthread_internal_list = type { ptr, ptr }
%struct.exr_chunk_info_t = type { i32, i32, i32, i32, i32, i8, i8, i8, i8, i64, i64, i64, i64, i64 }

@.str = private unnamed_addr constant [29 x i8] c"Part index (%d) out of range\00", align 1
@.str.31 = private unnamed_addr constant [48 x i8] c"invalid chunk index (%d) vs part chunk count %d\00", align 1
@.str.32 = private unnamed_addr constant [45 x i8] c"mismatched storage type for chunk block info\00", align 1
@.str.33 = private unnamed_addr constant [49 x i8] c"mismatched compression type for chunk block info\00", align 1
@.str.34 = private unnamed_addr constant [58 x i8] c"chunk block info data offset (%lu) past end of file (%ld)\00", align 1
@.str.35 = private unnamed_addr constant [66 x i8] c"chunk block info sample count offset (%lu) past end of file (%ld)\00", align 1

; Function Attrs: nounwind uwtable
define i32 @exr_read_deep_chunk(ptr noundef %0, i32 noundef %1, ptr noundef %2, ptr noundef %3, ptr noundef %4) #0 {
  %6 = alloca i32, align 4
  %7 = alloca ptr, align 8
  %8 = alloca i32, align 4
  %9 = alloca ptr, align 8
  %10 = alloca ptr, align 8
  %11 = alloca ptr, align 8
  %12 = alloca i32, align 4
  %13 = alloca i64, align 8
  %14 = alloca i64, align 8
  %15 = alloca i64, align 8
  %16 = alloca i32, align 4
  %17 = alloca ptr, align 8
  %18 = alloca i32, align 4
  store ptr %0, ptr %7, align 8, !tbaa !3
  store i32 %1, ptr %8, align 4, !tbaa !8
  store ptr %2, ptr %9, align 8, !tbaa !54
  store ptr %3, ptr %10, align 8, !tbaa !54
  store ptr %4, ptr %11, align 8, !tbaa !54
  call void @llvm.lifetime.start.p0(i64 4, ptr %12) #7
  call void @llvm.lifetime.start.p0(i64 8, ptr %13) #7
  call void @llvm.lifetime.start.p0(i64 8, ptr %14) #7
  call void @llvm.lifetime.start.p0(i64 8, ptr %15) #7
  call void @llvm.lifetime.start.p0(i64 4, ptr %16) #7
  store i32 0, ptr %16, align 4, !tbaa !8
  call void @llvm.lifetime.start.p0(i64 8, ptr %17) #7
  %19 = load ptr, ptr %7, align 8, !tbaa !3
  %20 = icmp ne ptr %19, null
  br i1 %20, label %22, label %21

21:                                               ; preds = %5
  store i32 2, ptr %6, align 4
  store i32 1, ptr %18, align 4
  br label %228

22:                                               ; preds = %5
  %23 = load ptr, ptr %7, align 8, !tbaa !3
  %24 = getelementptr inbounds nuw %struct._priv_exr_context_t, ptr %23, i32 0, i32 0
  %25 = load i8, ptr %24, align 8, !tbaa !12
  %26 = zext i8 %25 to i32
  %27 = icmp ne i32 %26, 0
  br i1 %27, label %28, label %34

28:                                               ; preds = %22
  %29 = load ptr, ptr %7, align 8, !tbaa !3
  %30 = getelementptr inbounds nuw %struct._priv_exr_context_t, ptr %29, i32 0, i32 12
  %31 = load ptr, ptr %30, align 8, !tbaa !31
  %32 = load ptr, ptr %7, align 8, !tbaa !3
  %33 = call i32 %31(ptr noundef %32, i32 noundef 7)
  store i32 %33, ptr %6, align 4
  store i32 1, ptr %18, align 4
  br label %228

34:                                               ; preds = %22
  %35 = load i32, ptr %8, align 4, !tbaa !8
  %36 = icmp slt i32 %35, 0
  br i1 %36, label %43, label %37

37:                                               ; preds = %34
  %38 = load i32, ptr %8, align 4, !tbaa !8
  %39 = load ptr, ptr %7, align 8, !tbaa !3
  %40 = getelementptr inbounds nuw %struct._priv_exr_context_t, ptr %39, i32 0, i32 34
  %41 = load i32, ptr %40, align 4, !tbaa !27
  %42 = icmp sge i32 %38, %41
  br i1 %42, label %43, label %50

43:                                               ; preds = %37, %34
  %44 = load ptr, ptr %7, align 8, !tbaa !3
  %45 = getelementptr inbounds nuw %struct._priv_exr_context_t, ptr %44, i32 0, i32 14
  %46 = load ptr, ptr %45, align 8, !tbaa !28
  %47 = load ptr, ptr %7, align 8, !tbaa !3
  %48 = load i32, ptr %8, align 4, !tbaa !8
  %49 = call i32 (ptr, i32, ptr, ...) %46(ptr noundef %47, i32 noundef 4, ptr noundef @.str, i32 noundef %48)
  store i32 %49, ptr %6, align 4
  store i32 1, ptr %18, align 4
  br label %228

50:                                               ; preds = %37
  %51 = load ptr, ptr %7, align 8, !tbaa !3
  %52 = getelementptr inbounds nuw %struct._priv_exr_context_t, ptr %51, i32 0, i32 37
  %53 = load ptr, ptr %52, align 8, !tbaa !29
  %54 = load i32, ptr %8, align 4, !tbaa !8
  %55 = sext i32 %54 to i64
  %56 = getelementptr inbounds ptr, ptr %53, i64 %55
  %57 = load ptr, ptr %56, align 8, !tbaa !30
  store ptr %57, ptr %17, align 8, !tbaa !30
  %58 = load ptr, ptr %9, align 8, !tbaa !54
  %59 = icmp ne ptr %58, null
  br i1 %59, label %66, label %60

60:                                               ; preds = %50
  %61 = load ptr, ptr %7, align 8, !tbaa !3
  %62 = getelementptr inbounds nuw %struct._priv_exr_context_t, ptr %61, i32 0, i32 12
  %63 = load ptr, ptr %62, align 8, !tbaa !31
  %64 = load ptr, ptr %7, align 8, !tbaa !3
  %65 = call i32 %63(ptr noundef %64, i32 noundef 3)
  store i32 %65, ptr %6, align 4
  store i32 1, ptr %18, align 4
  br label %228

66:                                               ; preds = %50
  %67 = load ptr, ptr %9, align 8, !tbaa !54
  %68 = getelementptr inbounds nuw %struct.exr_chunk_info_t, ptr %67, i32 0, i32 0
  %69 = load i32, ptr %68, align 8, !tbaa !61
  %70 = icmp slt i32 %69, 0
  br i1 %70, label %79, label %71

71:                                               ; preds = %66
  %72 = load ptr, ptr %9, align 8, !tbaa !54
  %73 = getelementptr inbounds nuw %struct.exr_chunk_info_t, ptr %72, i32 0, i32 0
  %74 = load i32, ptr %73, align 8, !tbaa !61
  %75 = load ptr, ptr %17, align 8, !tbaa !30
  %76 = getelementptr inbounds nuw %struct._priv_exr_part_t, ptr %75, i32 0, i32 32
  %77 = load i32, ptr %76, align 4, !tbaa !36
  %78 = icmp sge i32 %74, %77
  br i1 %78, label %79, label %91

79:                                               ; preds = %71, %66
  %80 = load ptr, ptr %7, align 8, !tbaa !3
  %81 = getelementptr inbounds nuw %struct._priv_exr_context_t, ptr %80, i32 0, i32 14
  %82 = load ptr, ptr %81, align 8, !tbaa !28
  %83 = load ptr, ptr %7, align 8, !tbaa !3
  %84 = load ptr, ptr %9, align 8, !tbaa !54
  %85 = getelementptr inbounds nuw %struct.exr_chunk_info_t, ptr %84, i32 0, i32 0
  %86 = load i32, ptr %85, align 8, !tbaa !61
  %87 = load ptr, ptr %17, align 8, !tbaa !30
  %88 = getelementptr inbounds nuw %struct._priv_exr_part_t, ptr %87, i32 0, i32 32
  %89 = load i32, ptr %88, align 4, !tbaa !36
  %90 = call i32 (ptr, i32, ptr, ...) %82(ptr noundef %83, i32 noundef 3, ptr noundef @.str.31, i32 noundef %86, i32 noundef %89)
  store i32 %90, ptr %6, align 4
  store i32 1, ptr %18, align 4
  br label %228

91:                                               ; preds = %71
  %92 = load ptr, ptr %9, align 8, !tbaa !54
  %93 = getelementptr inbounds nuw %struct.exr_chunk_info_t, ptr %92, i32 0, i32 7
  %94 = load i8, ptr %93, align 2, !tbaa !63
  %95 = zext i8 %94 to i32
  %96 = load ptr, ptr %17, align 8, !tbaa !30
  %97 = getelementptr inbounds nuw %struct._priv_exr_part_t, ptr %96, i32 0, i32 1
  %98 = load i32, ptr %97, align 4, !tbaa !58
  %99 = trunc i32 %98 to i8
  %100 = zext i8 %99 to i32
  %101 = icmp ne i32 %95, %100
  br i1 %101, label %102, label %108

102:                                              ; preds = %91
  %103 = load ptr, ptr %7, align 8, !tbaa !3
  %104 = getelementptr inbounds nuw %struct._priv_exr_context_t, ptr %103, i32 0, i32 13
  %105 = load ptr, ptr %104, align 8, !tbaa !37
  %106 = load ptr, ptr %7, align 8, !tbaa !3
  %107 = call i32 %105(ptr noundef %106, i32 noundef 3, ptr noundef @.str.32)
  store i32 %107, ptr %6, align 4
  store i32 1, ptr %18, align 4
  br label %228

108:                                              ; preds = %91
  %109 = load ptr, ptr %9, align 8, !tbaa !54
  %110 = getelementptr inbounds nuw %struct.exr_chunk_info_t, ptr %109, i32 0, i32 8
  %111 = load i8, ptr %110, align 1, !tbaa !65
  %112 = zext i8 %111 to i32
  %113 = load ptr, ptr %17, align 8, !tbaa !30
  %114 = getelementptr inbounds nuw %struct._priv_exr_part_t, ptr %113, i32 0, i32 19
  %115 = load i32, ptr %114, align 8, !tbaa !64
  %116 = trunc i32 %115 to i8
  %117 = zext i8 %116 to i32
  %118 = icmp ne i32 %112, %117
  br i1 %118, label %119, label %125

119:                                              ; preds = %108
  %120 = load ptr, ptr %7, align 8, !tbaa !3
  %121 = getelementptr inbounds nuw %struct._priv_exr_context_t, ptr %120, i32 0, i32 13
  %122 = load ptr, ptr %121, align 8, !tbaa !37
  %123 = load ptr, ptr %7, align 8, !tbaa !3
  %124 = call i32 %122(ptr noundef %123, i32 noundef 3, ptr noundef @.str.33)
  store i32 %124, ptr %6, align 4
  store i32 1, ptr %18, align 4
  br label %228

125:                                              ; preds = %108
  %126 = load ptr, ptr %7, align 8, !tbaa !3
  %127 = getelementptr inbounds nuw %struct._priv_exr_context_t, ptr %126, i32 0, i32 27
  %128 = load i64, ptr %127, align 8, !tbaa !38
  %129 = icmp sgt i64 %128, 0
  br i1 %129, label %130, label %150

130:                                              ; preds = %125
  %131 = load ptr, ptr %9, align 8, !tbaa !54
  %132 = getelementptr inbounds nuw %struct.exr_chunk_info_t, ptr %131, i32 0, i32 12
  %133 = load i64, ptr %132, align 8, !tbaa !104
  %134 = load ptr, ptr %7, align 8, !tbaa !3
  %135 = getelementptr inbounds nuw %struct._priv_exr_context_t, ptr %134, i32 0, i32 27
  %136 = load i64, ptr %135, align 8, !tbaa !38
  %137 = icmp ugt i64 %133, %136
  br i1 %137, label %138, label %150

138:                                              ; preds = %130
  %139 = load ptr, ptr %7, align 8, !tbaa !3
  %140 = getelementptr inbounds nuw %struct._priv_exr_context_t, ptr %139, i32 0, i32 14
  %141 = load ptr, ptr %140, align 8, !tbaa !28
  %142 = load ptr, ptr %7, align 8, !tbaa !3
  %143 = load ptr, ptr %9, align 8, !tbaa !54
  %144 = getelementptr inbounds nuw %struct.exr_chunk_info_t, ptr %143, i32 0, i32 12
  %145 = load i64, ptr %144, align 8, !tbaa !104
  %146 = load ptr, ptr %7, align 8, !tbaa !3
  %147 = getelementptr inbounds nuw %struct._priv_exr_context_t, ptr %146, i32 0, i32 27
  %148 = load i64, ptr %147, align 8, !tbaa !38
  %149 = call i32 (ptr, i32, ptr, ...) %141(ptr noundef %142, i32 noundef 3, ptr noundef @.str.35, i64 noundef %145, i64 noundef %148)
  store i32 %149, ptr %6, align 4
  store i32 1, ptr %18, align 4
  br label %228

150:                                              ; preds = %130, %125
  %151 = load ptr, ptr %7, align 8, !tbaa !3
  %152 = getelementptr inbounds nuw %struct._priv_exr_context_t, ptr %151, i32 0, i32 27
  %153 = load i64, ptr %152, align 8, !tbaa !38
  %154 = icmp sgt i64 %153, 0
  br i1 %154, label %155, label %175

155:                                              ; preds = %150
  %156 = load ptr, ptr %9, align 8, !tbaa !54
  %157 = getelementptr inbounds nuw %struct.exr_chunk_info_t, ptr %156, i32 0, i32 9
  %158 = load i64, ptr %157, align 8, !tbaa !106
  %159 = load ptr, ptr %7, align 8, !tbaa !3
  %160 = getelementptr inbounds nuw %struct._priv_exr_context_t, ptr %159, i32 0, i32 27
  %161 = load i64, ptr %160, align 8, !tbaa !38
  %162 = icmp ugt i64 %158, %161
  br i1 %162, label %163, label %175

163:                                              ; preds = %155
  %164 = load ptr, ptr %7, align 8, !tbaa !3
  %165 = getelementptr inbounds nuw %struct._priv_exr_context_t, ptr %164, i32 0, i32 14
  %166 = load ptr, ptr %165, align 8, !tbaa !28
  %167 = load ptr, ptr %7, align 8, !tbaa !3
  %168 = load ptr, ptr %9, align 8, !tbaa !54
  %169 = getelementptr inbounds nuw %struct.exr_chunk_info_t, ptr %168, i32 0, i32 9
  %170 = load i64, ptr %169, align 8, !tbaa !106
  %171 = load ptr, ptr %7, align 8, !tbaa !3
  %172 = getelementptr inbounds nuw %struct._priv_exr_context_t, ptr %171, i32 0, i32 27
  %173 = load i64, ptr %172, align 8, !tbaa !38
  %174 = call i32 (ptr, i32, ptr, ...) %166(ptr noundef %167, i32 noundef 3, ptr noundef @.str.34, i64 noundef %170, i64 noundef %173)
  store i32 %174, ptr %6, align 4
  store i32 1, ptr %18, align 4
  br label %228

175:                                              ; preds = %155, %150
  store i32 0, ptr %12, align 4, !tbaa !8
  %176 = load ptr, ptr %11, align 8, !tbaa !54
  %177 = icmp ne ptr %176, null
  br i1 %177, label %178, label %198

178:                                              ; preds = %175
  %179 = load ptr, ptr %9, align 8, !tbaa !54
  %180 = getelementptr inbounds nuw %struct.exr_chunk_info_t, ptr %179, i32 0, i32 13
  %181 = load i64, ptr %180, align 8, !tbaa !105
  %182 = icmp ugt i64 %181, 0
  br i1 %182, label %183, label %198

183:                                              ; preds = %178
  %184 = load ptr, ptr %9, align 8, !tbaa !54
  %185 = getelementptr inbounds nuw %struct.exr_chunk_info_t, ptr %184, i32 0, i32 12
  %186 = load i64, ptr %185, align 8, !tbaa !104
  store i64 %186, ptr %13, align 8, !tbaa !33
  %187 = load ptr, ptr %9, align 8, !tbaa !54
  %188 = getelementptr inbounds nuw %struct.exr_chunk_info_t, ptr %187, i32 0, i32 13
  %189 = load i64, ptr %188, align 8, !tbaa !105
  store i64 %189, ptr %14, align 8, !tbaa !33
  store i64 0, ptr %15, align 8, !tbaa !33
  %190 = load ptr, ptr %7, align 8, !tbaa !3
  %191 = getelementptr inbounds nuw %struct._priv_exr_context_t, ptr %190, i32 0, i32 10
  %192 = load ptr, ptr %191, align 8, !tbaa !40
  %193 = load ptr, ptr %7, align 8, !tbaa !3
  %194 = load ptr, ptr %11, align 8, !tbaa !54
  %195 = load i64, ptr %14, align 8, !tbaa !33
  %196 = load i32, ptr %16, align 4, !tbaa !8
  %197 = call i32 %192(ptr noundef %193, ptr noundef %194, i64 noundef %195, ptr noundef %13, ptr noundef %15, i32 noundef %196)
  store i32 %197, ptr %12, align 4, !tbaa !8
  br label %198

198:                                              ; preds = %183, %178, %175
  %199 = load i32, ptr %12, align 4, !tbaa !8
  %200 = icmp ne i32 %199, 0
  br i1 %200, label %201, label %203

201:                                              ; preds = %198
  %202 = load i32, ptr %12, align 4, !tbaa !8
  store i32 %202, ptr %6, align 4
  store i32 1, ptr %18, align 4
  br label %228

203:                                              ; preds = %198
  %204 = load ptr, ptr %10, align 8, !tbaa !54
  %205 = icmp ne ptr %204, null
  br i1 %205, label %206, label %226

206:                                              ; preds = %203
  %207 = load ptr, ptr %9, align 8, !tbaa !54
  %208 = getelementptr inbounds nuw %struct.exr_chunk_info_t, ptr %207, i32 0, i32 10
  %209 = load i64, ptr %208, align 8, !tbaa !107
  %210 = icmp ugt i64 %209, 0
  br i1 %210, label %211, label %226

211:                                              ; preds = %206
  %212 = load ptr, ptr %9, align 8, !tbaa !54
  %213 = getelementptr inbounds nuw %struct.exr_chunk_info_t, ptr %212, i32 0, i32 9
  %214 = load i64, ptr %213, align 8, !tbaa !106
  store i64 %214, ptr %13, align 8, !tbaa !33
  %215 = load ptr, ptr %9, align 8, !tbaa !54
  %216 = getelementptr inbounds nuw %struct.exr_chunk_info_t, ptr %215, i32 0, i32 10
  %217 = load i64, ptr %216, align 8, !tbaa !107
  store i64 %217, ptr %14, align 8, !tbaa !33
  store i64 0, ptr %15, align 8, !tbaa !33
  %218 = load ptr, ptr %7, align 8, !tbaa !3
  %219 = getelementptr inbounds nuw %struct._priv_exr_context_t, ptr %218, i32 0, i32 10
  %220 = load ptr, ptr %219, align 8, !tbaa !40
  %221 = load ptr, ptr %7, align 8, !tbaa !3
  %222 = load ptr, ptr %10, align 8, !tbaa !54
  %223 = load i64, ptr %14, align 8, !tbaa !33
  %224 = load i32, ptr %16, align 4, !tbaa !8
  %225 = call i32 %220(ptr noundef %221, ptr noundef %222, i64 noundef %223, ptr noundef %13, ptr noundef %15, i32 noundef %224)
  store i32 %225, ptr %12, align 4, !tbaa !8
  br label %226

226:                                              ; preds = %211, %206, %203
  %227 = load i32, ptr %12, align 4, !tbaa !8
  store i32 %227, ptr %6, align 4
  store i32 1, ptr %18, align 4
  br label %228

228:                                              ; preds = %226, %201, %163, %138, %119, %102, %79, %60, %43, %28, %21
  call void @llvm.lifetime.end.p0(i64 8, ptr %17) #7
  call void @llvm.lifetime.end.p0(i64 4, ptr %16) #7
  call void @llvm.lifetime.end.p0(i64 8, ptr %15) #7
  call void @llvm.lifetime.end.p0(i64 8, ptr %14) #7
  call void @llvm.lifetime.end.p0(i64 8, ptr %13) #7
  call void @llvm.lifetime.end.p0(i64 4, ptr %12) #7
  %229 = load i32, ptr %6, align 4
  ret i32 %229
}