; Function Attrs: nounwind uwtable
define i32 @exr_read_deep_chunk(ptr noundef %0, i32 noundef %1, ptr noundef readonly %2, ptr noundef %3, ptr noundef %4) local_unnamed_addr #0 {
  %6 = alloca i64, align 8
  %7 = alloca i64, align 8
  call void @llvm.lifetime.start.p0(i64 8, ptr nonnull %6) #8
  call void @llvm.lifetime.start.p0(i64 8, ptr nonnull %7) #8
  %.not = icmp eq ptr %0, null
  br i1 %.not, label %98, label %8

8:                                                ; preds = %5
  %9 = load i8, ptr %0, align 8, !tbaa !3
  %.not76 = icmp eq i8 %9, 0
  br i1 %.not76, label %14, label %10

10:                                               ; preds = %8
  %11 = getelementptr inbounds nuw i8, ptr %0, i64 56
  %12 = load ptr, ptr %11, align 8, !tbaa !24
  %13 = tail call i32 %12(ptr noundef nonnull %0, i32 noundef 7) #8
  br label %98

14:                                               ; preds = %8
  %15 = icmp slt i32 %1, 0
  br i1 %15, label %19, label %16

16:                                               ; preds = %14
  %17 = getelementptr inbounds nuw i8, ptr %0, i64 196
  %18 = load i32, ptr %17, align 4, !tbaa !22
  %.not77 = icmp slt i32 %1, %18
  br i1 %.not77, label %23, label %19

19:                                               ; preds = %16, %14
  %20 = getelementptr inbounds nuw i8, ptr %0, i64 72
  %21 = load ptr, ptr %20, align 8, !tbaa !23
  %22 = tail call i32 (ptr, i32, ptr, ...) %21(ptr noundef nonnull %0, i32 noundef 4, ptr noundef nonnull @.str, i32 noundef %1) #8
  br label %98

23:                                               ; preds = %16
  %24 = getelementptr inbounds nuw i8, ptr %0, i64 472
  %25 = load ptr, ptr %24, align 8, !tbaa !25
  %26 = zext nneg i32 %1 to i64
  %27 = getelementptr inbounds nuw ptr, ptr %25, i64 %26
  %28 = load ptr, ptr %27, align 8, !tbaa !26
  %.not78 = icmp eq ptr %2, null
  br i1 %.not78, label %29, label %33

29:                                               ; preds = %23
  %30 = getelementptr inbounds nuw i8, ptr %0, i64 56
  %31 = load ptr, ptr %30, align 8, !tbaa !24
  %32 = tail call i32 %31(ptr noundef nonnull %0, i32 noundef 3) #8
  br label %98

33:                                               ; preds = %23
  %34 = load i32, ptr %2, align 8, !tbaa !52
  %35 = icmp sgt i32 %34, -1
  %.phi.trans.insert = getelementptr inbounds nuw i8, ptr %28, i64 244
  %.pre = load i32, ptr %.phi.trans.insert, align 4, !tbaa !29
  %.not79 = icmp slt i32 %34, %.pre
  %or.cond = select i1 %35, i1 %.not79, i1 false
  br i1 %or.cond, label %39, label %._crit_edge

._crit_edge:                                      ; preds = %33
  %36 = getelementptr inbounds nuw i8, ptr %0, i64 72
  %37 = load ptr, ptr %36, align 8, !tbaa !23
  %38 = tail call i32 (ptr, i32, ptr, ...) %37(ptr noundef nonnull %0, i32 noundef 3, ptr noundef nonnull @.str.31, i32 noundef %34, i32 noundef %.pre) #8
  br label %98

39:                                               ; preds = %33
  %40 = getelementptr inbounds nuw i8, ptr %2, i64 22
  %41 = load i8, ptr %40, align 2, !tbaa !54
  %42 = getelementptr inbounds nuw i8, ptr %28, i64 4
  %43 = load i32, ptr %42, align 4, !tbaa !44
  %44 = trunc i32 %43 to i8
  %.not80 = icmp eq i8 %41, %44
  br i1 %.not80, label %49, label %45

45:                                               ; preds = %39
  %46 = getelementptr inbounds nuw i8, ptr %0, i64 64
  %47 = load ptr, ptr %46, align 8, !tbaa !30
  %48 = tail call i32 %47(ptr noundef nonnull %0, i32 noundef 3, ptr noundef nonnull @.str.32) #8
  br label %98

49:                                               ; preds = %39
  %50 = getelementptr inbounds nuw i8, ptr %2, i64 23
  %51 = load i8, ptr %50, align 1, !tbaa !56
  %52 = getelementptr inbounds nuw i8, ptr %28, i64 176
  %53 = load i32, ptr %52, align 8, !tbaa !55
  %54 = trunc i32 %53 to i8
  %.not81 = icmp eq i8 %51, %54
  br i1 %.not81, label %59, label %55

55:                                               ; preds = %49
  %56 = getelementptr inbounds nuw i8, ptr %0, i64 64
  %57 = load ptr, ptr %56, align 8, !tbaa !30
  %58 = tail call i32 %57(ptr noundef nonnull %0, i32 noundef 3, ptr noundef nonnull @.str.33) #8
  br label %98

59:                                               ; preds = %49
  %60 = getelementptr inbounds nuw i8, ptr %0, i64 152
  %61 = load i64, ptr %60, align 8, !tbaa !31
  %62 = icmp sgt i64 %61, 0
  br i1 %62, label %63, label %79

63:                                               ; preds = %59
  %64 = getelementptr inbounds nuw i8, ptr %2, i64 48
  %65 = load i64, ptr %64, align 8, !tbaa !92
  %66 = icmp ugt i64 %65, %61
  br i1 %66, label %67, label %71

67:                                               ; preds = %63
  %68 = getelementptr inbounds nuw i8, ptr %0, i64 72
  %69 = load ptr, ptr %68, align 8, !tbaa !23
  %70 = tail call i32 (ptr, i32, ptr, ...) %69(ptr noundef nonnull %0, i32 noundef 3, ptr noundef nonnull @.str.35, i64 noundef %65, i64 noundef %61) #8
  br label %98

71:                                               ; preds = %63
  %72 = getelementptr inbounds nuw i8, ptr %2, i64 24
  %73 = load i64, ptr %72, align 8, !tbaa !94
  %74 = icmp ugt i64 %73, %61
  br i1 %74, label %75, label %79

75:                                               ; preds = %71
  %76 = getelementptr inbounds nuw i8, ptr %0, i64 72
  %77 = load ptr, ptr %76, align 8, !tbaa !23
  %78 = tail call i32 (ptr, i32, ptr, ...) %77(ptr noundef nonnull %0, i32 noundef 3, ptr noundef nonnull @.str.34, i64 noundef %73, i64 noundef %61) #8
  br label %98

79:                                               ; preds = %59, %71
  %.not82 = icmp eq ptr %4, null
  br i1 %.not82, label %.thread87, label %80

80:                                               ; preds = %79
  %81 = getelementptr inbounds nuw i8, ptr %2, i64 56
  %82 = load i64, ptr %81, align 8, !tbaa !93
  %.not83 = icmp eq i64 %82, 0
  br i1 %.not83, label %.thread87, label %83

83:                                               ; preds = %80
  %84 = getelementptr inbounds nuw i8, ptr %2, i64 48
  %85 = load i64, ptr %84, align 8, !tbaa !92
  store i64 %85, ptr %6, align 8, !tbaa !28
  store i64 0, ptr %7, align 8, !tbaa !28
  %86 = getelementptr inbounds nuw i8, ptr %0, i64 40
  %87 = load ptr, ptr %86, align 8, !tbaa !33
  %88 = call i32 %87(ptr noundef nonnull %0, ptr noundef nonnull %4, i64 noundef %82, ptr noundef nonnull %6, ptr noundef nonnull %7, i32 noundef 0) #8
  %.not84 = icmp eq i32 %88, 0
  br i1 %.not84, label %.thread87, label %98

.thread87:                                        ; preds = %79, %80, %83
  %.not85 = icmp eq ptr %3, null
  br i1 %.not85, label %98, label %89

89:                                               ; preds = %.thread87
  %90 = getelementptr inbounds nuw i8, ptr %2, i64 32
  %91 = load i64, ptr %90, align 8, !tbaa !95
  %.not86 = icmp eq i64 %91, 0
  br i1 %.not86, label %98, label %92

92:                                               ; preds = %89
  %93 = getelementptr inbounds nuw i8, ptr %2, i64 24
  %94 = load i64, ptr %93, align 8, !tbaa !94
  store i64 %94, ptr %6, align 8, !tbaa !28
  store i64 0, ptr %7, align 8, !tbaa !28
  %95 = getelementptr inbounds nuw i8, ptr %0, i64 40
  %96 = load ptr, ptr %95, align 8, !tbaa !33
  %97 = call i32 %96(ptr noundef nonnull %0, ptr noundef nonnull %3, i64 noundef %91, ptr noundef nonnull %6, ptr noundef nonnull %7, i32 noundef 0) #8
  br label %98

98:                                               ; preds = %.thread87, %89, %92, %83, %5, %75, %67, %55, %45, %._crit_edge, %29, %19, %10
  %.0 = phi i32 [ %13, %10 ], [ %22, %19 ], [ %38, %._crit_edge ], [ %48, %45 ], [ %58, %55 ], [ %70, %67 ], [ %78, %75 ], [ %32, %29 ], [ 2, %5 ], [ %88, %83 ], [ %97, %92 ], [ 0, %89 ], [ 0, %.thread87 ]
  call void @llvm.lifetime.end.p0(i64 8, ptr nonnull %7) #8
  call void @llvm.lifetime.end.p0(i64 8, ptr nonnull %6) #8
  ret i32 %.0
}